; Function Attrs: nounwind uwtable
define ptr @l_Lean_RBNode_foldM___at_Lean_RBMap_forM___spec__1___rarg___lambda__2(ptr noundef %0, ptr noundef %1, ptr noundef %2, ptr noundef %3, ptr noundef %4, ptr noundef %5, ptr readnone captures(none) %6) local_unnamed_addr #1 {
  %8 = ptrtoint ptr %0 to i64
  %9 = and i64 %8, 1
  %.not = icmp eq i64 %9, 0
  br i1 %.not, label %10, label %lean_inc.exit

10:                                               ; preds = %7
  %.val.i = load i32, ptr %0, align 4, !tbaa !4
  %11 = icmp sgt i32 %.val.i, 0
  br i1 %11, label %12, label %14, !prof !9

12:                                               ; preds = %10
  %13 = add nuw i32 %.val.i, 1
  store i32 %13, ptr %0, align 4, !tbaa !4
  br label %lean_inc.exit

14:                                               ; preds = %10
  %.not.i = icmp eq i32 %.val.i, 0
  br i1 %.not.i, label %lean_inc.exit, label %15

15:                                               ; preds = %14
  tail call void @lean_inc_ref_cold(ptr noundef nonnull %0) #9
  br label %lean_inc.exit

lean_inc.exit:                                    ; preds = %15, %14, %12, %7
  %16 = tail call ptr @lean_apply_2(ptr noundef %0, ptr noundef %1, ptr noundef %2) #9
  tail call void @lean_inc_heartbeat() #9
  %17 = tail call noalias ptr @mi_malloc_small(i64 noundef 48) #9
  %18 = icmp eq ptr %17, null
  br i1 %18, label %19, label %lean_alloc_closure.exit

19:                                               ; preds = %lean_inc.exit
  tail call void @lean_internal_panic_out_of_memory() #10
  unreachable

lean_alloc_closure.exit:                          ; preds = %lean_inc.exit
  %20 = getelementptr inbounds nuw i8, ptr %17, i64 4
  store i32 1, ptr %17, align 4, !tbaa !4
  store i32 -184549328, ptr %20, align 4
  %21 = getelementptr inbounds nuw i8, ptr %17, i64 8
  store ptr @l_Lean_RBNode_foldM___at_Lean_RBMap_forM___spec__1___rarg___lambda__1, ptr %21, align 8, !tbaa !10
  %22 = getelementptr inbounds nuw i8, ptr %17, i64 16
  store i16 4, ptr %22, align 8, !tbaa !12
  %23 = getelementptr inbounds nuw i8, ptr %17, i64 18
  store i16 3, ptr %23, align 2, !tbaa !12
  %24 = getelementptr inbounds nuw i8, ptr %17, i64 24
  store ptr %3, ptr %24, align 8, !tbaa !10
  %25 = getelementptr inbounds nuw i8, ptr %17, i64 32
  store ptr %0, ptr %25, align 8, !tbaa !10
  %26 = getelementptr inbounds nuw i8, ptr %17, i64 40
  store ptr %4, ptr %26, align 8, !tbaa !10
  %27 = tail call ptr @lean_apply_4(ptr noundef %5, ptr noundef nonnull inttoptr (i64 1 to ptr), ptr noundef nonnull inttoptr (i64 1 to ptr), ptr noundef %16, ptr noundef nonnull %17) #9
  ret ptr %27
}